target datalayout = "e-m:e-p270:32:32-p271:32:32-p272:64:64-i64:64-i128:128-f80:128-n8:16:32:64-S128"
target triple = "x86_64-unknown-linux-gnu"

%"class.google::protobuf::Descriptor" = type { %"class.google::protobuf::internal::SymbolBase", i8, i16, i32, ptr, ptr, ptr, ptr, ptr, ptr, ptr, ptr, ptr, ptr, ptr, ptr, ptr, ptr, i32, i32, i32, i32, i32, i32, i32, i32 }
%"class.google::protobuf::internal::SymbolBase" = type { i8 }
%"class.google::protobuf::FieldDescriptor" = type { %"class.google::protobuf::internal::SymbolBase", i8, i8, i8, i32, ptr, ptr, ptr, ptr, %union.anon.22, %union.anon.23, ptr, ptr, ptr, %union.anon.24 }
%union.anon.22 = type { ptr }
%union.anon.23 = type { ptr }
%union.anon.24 = type { i64 }
%"class.absl::lts_20230802::log_internal::NullStream" = type { i8 }

; Function Attrs: mustprogress nounwind uwtable
define linkonce_odr hidden noundef nonnull align 1 dereferenceable(1) ptr @_ZN4absl12lts_2023080212log_internal10NullStream14InternalStreamEv(ptr noundef nonnull align 1 dereferenceable(1) %this) #5 comdat align 2 {
entry:
  %this.addr = alloca ptr, align 8
  store ptr %this, ptr %this.addr, align 8
  %this1 = load ptr, ptr %this.addr, align 8
  ret ptr %this1
}

; Function Attrs: mustprogress nounwind uwtable
define linkonce_odr hidden noundef ptr @_ZNK6google8protobuf10Descriptor11nested_typeEi(ptr noundef nonnull align 8 dereferenceable(152) %this, i32 noundef %index) #5 comdat align 2 {
entry:
  %this.addr = alloca ptr, align 8
  %index.addr = alloca i32, align 4
  %ref.tmp = alloca %"class.absl::lts_20230802::log_internal::NullStream", align 1
  %ref.tmp4 = alloca %"class.absl::lts_20230802::log_internal::NullStream", align 1
  store ptr %this, ptr %this.addr, align 8
  store i32 %index, ptr %index.addr, align 4
  %this1 = load ptr, ptr %this.addr, align 8
  br label %while.cond

while.cond:                                       ; preds = %while.body, %entry
  br i1 false, label %while.body, label %while.end

while.body:                                       ; preds = %while.cond
  %call = call noundef nonnull align 1 dereferenceable(1) ptr @_ZN4absl12lts_2023080212log_internal10NullStream14InternalStreamEv(ptr noundef nonnull align 1 dereferenceable(1) %ref.tmp)
  br label %while.cond, !llvm.loop !51

while.end:                                        ; preds = %while.cond
  br label %while.cond2

while.cond2:                                      ; preds = %while.body3, %while.end
  br i1 false, label %while.body3, label %while.end6

while.body3:                                      ; preds = %while.cond2
  %call5 = call noundef nonnull align 1 dereferenceable(1) ptr @_ZN4absl12lts_2023080212log_internal10NullStream14InternalStreamEv(ptr noundef nonnull align 1 dereferenceable(1) %ref.tmp4)
  br label %while.cond2, !llvm.loop !52

while.end6:                                       ; preds = %while.cond2
  %nested_types_ = getelementptr inbounds %"class.google::protobuf::Descriptor", ptr %this1, i32 0, i32 12
  %0 = load ptr, ptr %nested_types_, align 8
  %1 = load i32, ptr %index.addr, align 4
  %idx.ext = sext i32 %1 to i64
  %add.ptr = getelementptr inbounds %"class.google::protobuf::Descriptor", ptr %0, i64 %idx.ext
  ret ptr %add.ptr
}

; Function Attrs: mustprogress nounwind uwtable
define linkonce_odr hidden noundef i32 @_ZNK6google8protobuf10Descriptor17nested_type_countEv(ptr noundef nonnull align 8 dereferenceable(152) %this) #5 comdat align 2 {
entry:
  %this.addr = alloca ptr, align 8
  store ptr %this, ptr %this.addr, align 8
  %this1 = load ptr, ptr %this.addr, align 8
  %nested_type_count_ = getelementptr inbounds %"class.google::protobuf::Descriptor", ptr %this1, i32 0, i32 20
  %0 = load i32, ptr %nested_type_count_, align 8
  ret i32 %0
}

; Function Attrs: mustprogress nounwind uwtable
define linkonce_odr hidden noundef i32 @_ZNK6google8protobuf15FieldDescriptor5labelEv(ptr noundef nonnull align 8 dereferenceable(88) %this) #5 comdat align 2 {
entry:
  %this.addr = alloca ptr, align 8
  store ptr %this, ptr %this.addr, align 8
  %this1 = load ptr, ptr %this.addr, align 8
  %label_ = getelementptr inbounds %"class.google::protobuf::FieldDescriptor", ptr %this1, i32 0, i32 1
  %bf.load = load i8, ptr %label_, align 1
  %bf.lshr = lshr i8 %bf.load, 5
  %bf.clear = and i8 %bf.lshr, 3
  %conv = zext i8 %bf.clear to i32
  ret i32 %conv
}

; Function Attrs: mustprogress nounwind uwtable
define linkonce_odr hidden noundef ptr @_ZNK6google8protobuf10Descriptor5fieldEi(ptr noundef nonnull align 8 dereferenceable(152) %this, i32 noundef %index) #5 comdat align 2 {
entry:
  %this.addr = alloca ptr, align 8
  %index.addr = alloca i32, align 4
  %ref.tmp = alloca %"class.absl::lts_20230802::log_internal::NullStream", align 1
  %ref.tmp4 = alloca %"class.absl::lts_20230802::log_internal::NullStream", align 1
  store ptr %this, ptr %this.addr, align 8
  store i32 %index, ptr %index.addr, align 4
  %this1 = load ptr, ptr %this.addr, align 8
  br label %while.cond

while.cond:                                       ; preds = %while.body, %entry
  br i1 false, label %while.body, label %while.end

while.body:                                       ; preds = %while.cond
  %call = call noundef nonnull align 1 dereferenceable(1) ptr @_ZN4absl12lts_2023080212log_internal10NullStream14InternalStreamEv(ptr noundef nonnull align 1 dereferenceable(1) %ref.tmp)
  br label %while.cond, !llvm.loop !42

while.end:                                        ; preds = %while.cond
  br label %while.cond2

while.cond2:                                      ; preds = %while.body3, %while.end
  br i1 false, label %while.body3, label %while.end6

while.body3:                                      ; preds = %while.cond2
  %call5 = call noundef nonnull align 1 dereferenceable(1) ptr @_ZN4absl12lts_2023080212log_internal10NullStream14InternalStreamEv(ptr noundef nonnull align 1 dereferenceable(1) %ref.tmp4)
  br label %while.cond2, !llvm.loop !43

while.end6:                                       ; preds = %while.cond2
  %fields_ = getelementptr inbounds %"class.google::protobuf::Descriptor", ptr %this1, i32 0, i32 10
  %0 = load ptr, ptr %fields_, align 8
  %1 = load i32, ptr %index.addr, align 4
  %idx.ext = sext i32 %1 to i64
  %add.ptr = getelementptr inbounds %"class.google::protobuf::FieldDescriptor", ptr %0, i64 %idx.ext
  ret ptr %add.ptr
}

; Function Attrs: mustprogress nounwind uwtable
define linkonce_odr hidden noundef i32 @_ZNK6google8protobuf10Descriptor11field_countEv(ptr noundef nonnull align 8 dereferenceable(152) %this) #5 comdat align 2 {
entry:
  %this.addr = alloca ptr, align 8
  store ptr %this, ptr %this.addr, align 8
  %this1 = load ptr, ptr %this.addr, align 8
  %field_count_ = getelementptr inbounds %"class.google::protobuf::Descriptor", ptr %this1, i32 0, i32 3
  %0 = load i32, ptr %field_count_, align 4
  ret i32 %0
}

; Function Attrs: mustprogress uwtable
define internal noundef zeroext i1 @_ZN6google8protobuf8compiler3cppL17HasRepeatedFieldsEPKNS0_10DescriptorE(ptr noundef %descriptor) #4 {
entry:
  %retval = alloca i1, align 1
  %descriptor.addr = alloca ptr, align 8
  %i = alloca i32, align 4
  %i4 = alloca i32, align 4
  store ptr %descriptor, ptr %descriptor.addr, align 8
  store i32 0, ptr %i, align 4
  br label %for.cond

for.cond:                                         ; preds = %for.inc, %entry
  %0 = load i32, ptr %i, align 4
  %1 = load ptr, ptr %descriptor.addr, align 8
  %call = call noundef i32 @_ZNK6google8protobuf10Descriptor11field_countEv(ptr noundef nonnull align 8 dereferenceable(152) %1)
  %cmp = icmp slt i32 %0, %call
  br i1 %cmp, label %for.body, label %for.end

for.body:                                         ; preds = %for.cond
  %2 = load ptr, ptr %descriptor.addr, align 8
  %3 = load i32, ptr %i, align 4
  %call1 = call noundef ptr @_ZNK6google8protobuf10Descriptor5fieldEi(ptr noundef nonnull align 8 dereferenceable(152) %2, i32 noundef %3)
  %call2 = call noundef i32 @_ZNK6google8protobuf15FieldDescriptor5labelEv(ptr noundef nonnull align 8 dereferenceable(88) %call1)
  %cmp3 = icmp eq i32 %call2, 3
  br i1 %cmp3, label %if.then, label %if.end

if.then:                                          ; preds = %for.body
  store i1 true, ptr %retval, align 1
  br label %return

if.end:                                           ; preds = %for.body
  br label %for.inc

for.inc:                                          ; preds = %if.end
  %4 = load i32, ptr %i, align 4
  %inc = add nsw i32 %4, 1
  store i32 %inc, ptr %i, align 4
  br label %for.cond, !llvm.loop !18

for.end:                                          ; preds = %for.cond
  store i32 0, ptr %i4, align 4
  br label %for.cond5

for.cond5:                                        ; preds = %for.inc13, %for.end
  %5 = load i32, ptr %i4, align 4
  %6 = load ptr, ptr %descriptor.addr, align 8
  %call6 = call noundef i32 @_ZNK6google8protobuf10Descriptor17nested_type_countEv(ptr noundef nonnull align 8 dereferenceable(152) %6)
  %cmp7 = icmp slt i32 %5, %call6
  br i1 %cmp7, label %for.body8, label %for.end15

for.body8:                                        ; preds = %for.cond5
  %7 = load ptr, ptr %descriptor.addr, align 8
  %8 = load i32, ptr %i4, align 4
  %call9 = call noundef ptr @_ZNK6google8protobuf10Descriptor11nested_typeEi(ptr noundef nonnull align 8 dereferenceable(152) %7, i32 noundef %8)
  %call10 = call noundef zeroext i1 @_ZN6google8protobuf8compiler3cppL17HasRepeatedFieldsEPKNS0_10DescriptorE(ptr noundef %call9)
  br i1 %call10, label %if.then11, label %if.end12

if.then11:                                        ; preds = %for.body8
  store i1 true, ptr %retval, align 1
  br label %return

if.end12:                                         ; preds = %for.body8
  br label %for.inc13

for.inc13:                                        ; preds = %if.end12
  %9 = load i32, ptr %i4, align 4
  %inc14 = add nsw i32 %9, 1
  store i32 %inc14, ptr %i4, align 4
  br label %for.cond5, !llvm.loop !19

for.end15:                                        ; preds = %for.cond5
  store i1 false, ptr %retval, align 1
  br label %return

return:                                           ; preds = %for.end15, %if.then11, %if.then
  %10 = load i1, ptr %retval, align 1
  ret i1 %10
}