; Function Attrs: mustprogress nofree nosync nounwind willreturn memory(read, inaccessiblemem: none) uwtable
define internal fastcc noundef zeroext i1 @_ZN6google8protobuf8compiler3cppL17HasRepeatedFieldsEPKNS0_10DescriptorE(ptr nocapture noundef readonly %descriptor) unnamed_addr #12 {
entry:
  %field_count_.i = getelementptr inbounds i8, ptr %descriptor, i64 4
  %0 = load i32, ptr %field_count_.i, align 4
  %cmp11 = icmp sgt i32 %0, 0
  br i1 %cmp11, label %for.body.lr.ph, label %for.cond5.preheader

for.body.lr.ph:                                   ; preds = %entry
  %fields_.i = getelementptr inbounds i8, ptr %descriptor, i64 56
  %1 = load ptr, ptr %fields_.i, align 8
  %wide.trip.count = zext nneg i32 %0 to i64
  br label %for.body

for.cond:                                         ; preds = %for.body
  %indvars.iv.next = add nuw nsw i64 %indvars.iv, 1
  %exitcond.not = icmp eq i64 %indvars.iv.next, %wide.trip.count
  br i1 %exitcond.not, label %for.cond5.preheader, label %for.body, !llvm.loop !161

for.cond5.preheader:                              ; preds = %for.cond, %entry
  %nested_type_count_.i = getelementptr inbounds i8, ptr %descriptor, i64 128
  %2 = load i32, ptr %nested_type_count_.i, align 8
  %cmp713 = icmp sgt i32 %2, 0
  br i1 %cmp713, label %for.body8.lr.ph, label %return

for.body8.lr.ph:                                  ; preds = %for.cond5.preheader
  %nested_types_.i = getelementptr inbounds i8, ptr %descriptor, i64 72
  %3 = load ptr, ptr %nested_types_.i, align 8
  %wide.trip.count21 = zext nneg i32 %2 to i64
  br label %for.body8

for.body:                                         ; preds = %for.body.lr.ph, %for.cond
  %indvars.iv = phi i64 [ 0, %for.body.lr.ph ], [ %indvars.iv.next, %for.cond ]
  %label_.i = getelementptr inbounds %"class.google::protobuf::FieldDescriptor", ptr %1, i64 %indvars.iv, i32 1
  %bf.load.i = load i8, ptr %label_.i, align 1
  %4 = and i8 %bf.load.i, 96
  %cmp3 = icmp eq i8 %4, 96
  br i1 %cmp3, label %return, label %for.cond

for.body8:                                        ; preds = %for.body8, %for.body8.lr.ph
  %indvars.iv18 = phi i64 [ 0, %for.body8.lr.ph ], [ %indvars.iv.next19, %for.body8 ]
  %add.ptr.i9 = getelementptr inbounds %"class.google::protobuf::Descriptor", ptr %3, i64 %indvars.iv18
  %call10 = tail call fastcc noundef zeroext i1 @_ZN6google8protobuf8compiler3cppL17HasRepeatedFieldsEPKNS0_10DescriptorE(ptr noundef %add.ptr.i9)
  %indvars.iv.next19 = add nuw nsw i64 %indvars.iv18, 1
  %exitcond22.not = icmp eq i64 %indvars.iv.next19, %wide.trip.count21
  %or.cond = select i1 %call10, i1 true, i1 %exitcond22.not
  br i1 %or.cond, label %return, label %for.body8, !llvm.loop !162

return:                                           ; preds = %for.body, %for.body8, %for.cond5.preheader
  %retval.0 = phi i1 [ false, %for.cond5.preheader ], [ %call10, %for.body8 ], [ true, %for.body ]
  ret i1 %retval.0
}